; Function Attrs: mustprogress uwtable
define noundef i32 @_ZNK7rocksdb22ColumnFamilyHandleImpl5GetIDEv(ptr noundef nonnull align 8 dereferenceable(32) %this) unnamed_addr #7 align 2 {
entry:
  %vtable = load ptr, ptr %this, align 8
  %vfn = getelementptr inbounds i8, ptr %vtable, i64 48
  %0 = load ptr, ptr %vfn, align 8
  %call = tail call noundef ptr %0(ptr noundef nonnull align 8 dereferenceable(32) %this)
  %1 = load i32, ptr %call, align 8
  ret i32 %1
}